; Function Attrs: nounwind uwtable
define dso_local ptr @pull_var_clause(ptr noundef %0, i32 noundef %1) local_unnamed_addr #0 {
  %3 = alloca %struct.pull_var_clause_context, align 8
  call void @llvm.lifetime.start.p0(i64 16, ptr nonnull %3) #6
  store ptr null, ptr %3, align 8
  %4 = getelementptr inbounds nuw i8, ptr %3, i64 8
  store i32 %1, ptr %4, align 8
  %5 = call zeroext i1 @pull_var_clause_walker(ptr noundef %0, ptr noundef nonnull %3)
  %6 = load ptr, ptr %3, align 8
  call void @llvm.lifetime.end.p0(i64 16, ptr nonnull %3) #6
  ret ptr %6
}